target datalayout = "e-m:e-p270:32:32-p271:32:32-p272:64:64-i64:64-i128:128-f80:128-n8:16:32:64-S128"
target triple = "x86_64-pc-linux-gnu"

%struct.SDL_HIDAPI_Device = type { ptr, ptr, ptr, ptr, i16, i16, i16, ptr, %struct.SDL_GUID, i32, i32, i32, i32, i16, i16, i8, i32, i32, i32, ptr, ptr, ptr, ptr, %struct.SDL_AtomicInt, i32, ptr, i8, i8, i8, ptr, i32, ptr, ptr }
%struct.SDL_GUID = type { [16 x i8] }
%struct.SDL_AtomicInt = type { i32 }
%struct.SDL_Driver8BitDo_Context = type { i8, i8, i8, i8, i8, i8, i8, i8, i8, [6 x i8], i16, i16, float, float, [64 x i8], i64 }

@.str.2 = private unnamed_addr constant [16 x i8] c"8BitDo SF30 Pro\00", align 1
@.str.3 = private unnamed_addr constant [16 x i8] c"8BitDo SN30 Pro\00", align 1
@.str.4 = private unnamed_addr constant [13 x i8] c"8BitDo Pro 2\00", align 1

; Function Attrs: nounwind uwtable
define internal i32 @ReadFeatureReport(ptr noundef %0, i8 noundef zeroext %1, ptr noundef %2, i64 noundef %3) #0 {
  %5 = alloca ptr, align 8
  %6 = alloca i8, align 1
  %7 = alloca ptr, align 8
  %8 = alloca i64, align 8
  store ptr %0, ptr %5, align 8
  store i8 %1, ptr %6, align 1
  store ptr %2, ptr %7, align 8
  store i64 %3, ptr %8, align 8
  %9 = load ptr, ptr %7, align 8
  %10 = load i64, ptr %8, align 8
  call void @llvm.memset.p0.i64(ptr align 1 %9, i8 0, i64 %10, i1 false)
  %11 = load i8, ptr %6, align 1
  %12 = load ptr, ptr %7, align 8
  %13 = getelementptr inbounds i8, ptr %12, i64 0
  store i8 %11, ptr %13, align 1
  %14 = load ptr, ptr %5, align 8
  %15 = load ptr, ptr %7, align 8
  %16 = load i64, ptr %8, align 8
  %17 = call i32 @SDL_hid_get_feature_report_REAL(ptr noundef %14, ptr noundef %15, i64 noundef %16)
  ret i32 %17
}

; Function Attrs: nounwind uwtable
define internal zeroext i1 @HIDAPI_Driver8BitDo_InitDevice(ptr noundef %0) #0 {
  %2 = alloca i1, align 1
  %3 = alloca ptr, align 8
  %4 = alloca ptr, align 8
  %5 = alloca i32, align 4
  %6 = alloca i32, align 4
  %7 = alloca i32, align 4
  %8 = alloca i32, align 4
  %9 = alloca [64 x i8], align 16
  %10 = alloca i32, align 4
  %11 = alloca [64 x i8], align 16
  %12 = alloca i32, align 4
  store ptr %0, ptr %3, align 8
  call void @llvm.lifetime.start.p0(i64 8, ptr %4) #6
  %13 = call noalias ptr @SDL_calloc_REAL(i64 noundef 1, i64 noundef 104) #7
  store ptr %13, ptr %4, align 8
  %14 = load ptr, ptr %4, align 8
  %15 = icmp ne ptr %14, null
  br i1 %15, label %17, label %16

16:                                               ; preds = %1
  store i1 false, ptr %2, align 1
  store i32 1, ptr %5, align 4
  br label %121

17:                                               ; preds = %1
  %18 = load ptr, ptr %4, align 8
  %19 = load ptr, ptr %3, align 8
  %20 = getelementptr inbounds nuw %struct.SDL_HIDAPI_Device, ptr %19, i32 0, i32 20
  store ptr %18, ptr %20, align 8
  %21 = load ptr, ptr %3, align 8
  %22 = getelementptr inbounds nuw %struct.SDL_HIDAPI_Device, ptr %21, i32 0, i32 5
  %23 = load i16, ptr %22, align 2
  %24 = zext i16 %23 to i32
  %25 = icmp eq i32 %24, 24594
  br i1 %25, label %26, label %58

26:                                               ; preds = %17
  call void @llvm.lifetime.start.p0(i64 4, ptr %6) #6
  store i32 34, ptr %6, align 4
  call void @llvm.lifetime.start.p0(i64 4, ptr %7) #6
  store i32 3, ptr %7, align 4
  call void @llvm.lifetime.start.p0(i64 4, ptr %8) #6
  store i32 0, ptr %8, align 4
  br label %27

27:                                               ; preds = %53, %26
  %28 = load i32, ptr %8, align 4
  %29 = icmp slt i32 %28, 3
  br i1 %29, label %31, label %30

30:                                               ; preds = %27
  store i32 2, ptr %5, align 4
  br label %56

31:                                               ; preds = %27
  call void @llvm.lifetime.start.p0(i64 64, ptr %9) #6
  call void @llvm.lifetime.start.p0(i64 4, ptr %10) #6
  %32 = load ptr, ptr %3, align 8
  %33 = getelementptr inbounds nuw %struct.SDL_HIDAPI_Device, ptr %32, i32 0, i32 22
  %34 = load ptr, ptr %33, align 8
  %35 = getelementptr inbounds [64 x i8], ptr %9, i64 0, i64 0
  %36 = call i32 @SDL_hid_read_timeout_REAL(ptr noundef %34, ptr noundef %35, i64 noundef 64, i32 noundef 80)
  store i32 %36, ptr %10, align 4
  %37 = load i32, ptr %10, align 4
  %38 = icmp eq i32 %37, 0
  br i1 %38, label %39, label %40

39:                                               ; preds = %31
  store i32 4, ptr %5, align 4
  br label %51

40:                                               ; preds = %31
  %41 = load i32, ptr %10, align 4
  %42 = icmp sge i32 %41, 34
  br i1 %42, label %43, label %50

43:                                               ; preds = %40
  %44 = load ptr, ptr %4, align 8
  %45 = getelementptr inbounds nuw %struct.SDL_Driver8BitDo_Context, ptr %44, i32 0, i32 0
  store i8 1, ptr %45, align 8
  %46 = load ptr, ptr %4, align 8
  %47 = getelementptr inbounds nuw %struct.SDL_Driver8BitDo_Context, ptr %46, i32 0, i32 4
  store i8 1, ptr %47, align 4
  %48 = load ptr, ptr %4, align 8
  %49 = getelementptr inbounds nuw %struct.SDL_Driver8BitDo_Context, ptr %48, i32 0, i32 8
  store i8 1, ptr %49, align 8
  br label %50

50:                                               ; preds = %43, %40
  store i32 2, ptr %5, align 4
  br label %51

51:                                               ; preds = %50, %39
  call void @llvm.lifetime.end.p0(i64 4, ptr %10) #6
  call void @llvm.lifetime.end.p0(i64 64, ptr %9) #6
  %52 = load i32, ptr %5, align 4
  switch i32 %52, label %56 [
    i32 4, label %53
  ]

53:                                               ; preds = %51
  %54 = load i32, ptr %8, align 4
  %55 = add nsw i32 %54, 1
  store i32 %55, ptr %8, align 4
  br label %27, !llvm.loop !3

56:                                               ; preds = %51, %30
  call void @llvm.lifetime.end.p0(i64 4, ptr %8) #6
  br label %57

57:                                               ; preds = %56
  call void @llvm.lifetime.end.p0(i64 4, ptr %7) #6
  call void @llvm.lifetime.end.p0(i64 4, ptr %6) #6
  br label %74

58:                                               ; preds = %17
  call void @llvm.lifetime.start.p0(i64 64, ptr %11) #6
  call void @llvm.lifetime.start.p0(i64 4, ptr %12) #6
  %59 = load ptr, ptr %3, align 8
  %60 = getelementptr inbounds nuw %struct.SDL_HIDAPI_Device, ptr %59, i32 0, i32 22
  %61 = load ptr, ptr %60, align 8
  %62 = getelementptr inbounds [64 x i8], ptr %11, i64 0, i64 0
  %63 = call i32 @ReadFeatureReport(ptr noundef %61, i8 noundef zeroext 6, ptr noundef %62, i64 noundef 64)
  store i32 %63, ptr %12, align 4
  %64 = load i32, ptr %12, align 4
  %65 = icmp sgt i32 %64, 0
  br i1 %65, label %66, label %73

66:                                               ; preds = %58
  %67 = load ptr, ptr %4, align 8
  %68 = getelementptr inbounds nuw %struct.SDL_Driver8BitDo_Context, ptr %67, i32 0, i32 0
  store i8 1, ptr %68, align 8
  %69 = load ptr, ptr %4, align 8
  %70 = getelementptr inbounds nuw %struct.SDL_Driver8BitDo_Context, ptr %69, i32 0, i32 4
  store i8 1, ptr %70, align 4
  %71 = load ptr, ptr %4, align 8
  %72 = getelementptr inbounds nuw %struct.SDL_Driver8BitDo_Context, ptr %71, i32 0, i32 8
  store i8 1, ptr %72, align 8
  br label %73

73:                                               ; preds = %66, %58
  call void @llvm.lifetime.end.p0(i64 4, ptr %12) #6
  call void @llvm.lifetime.end.p0(i64 64, ptr %11) #6
  br label %74

74:                                               ; preds = %73, %57
  %75 = load ptr, ptr %3, align 8
  %76 = getelementptr inbounds nuw %struct.SDL_HIDAPI_Device, ptr %75, i32 0, i32 5
  %77 = load i16, ptr %76, align 2
  %78 = zext i16 %77 to i32
  %79 = icmp eq i32 %78, 24576
  br i1 %79, label %86, label %80

80:                                               ; preds = %74
  %81 = load ptr, ptr %3, align 8
  %82 = getelementptr inbounds nuw %struct.SDL_HIDAPI_Device, ptr %81, i32 0, i32 5
  %83 = load i16, ptr %82, align 2
  %84 = zext i16 %83 to i32
  %85 = icmp eq i32 %84, 24832
  br i1 %85, label %86, label %88

86:                                               ; preds = %80, %74
  %87 = load ptr, ptr %3, align 8
  call void @HIDAPI_SetDeviceName(ptr noundef %87, ptr noundef @.str.2)
  br label %118

88:                                               ; preds = %80
  %89 = load ptr, ptr %3, align 8
  %90 = getelementptr inbounds nuw %struct.SDL_HIDAPI_Device, ptr %89, i32 0, i32 5
  %91 = load i16, ptr %90, align 2
  %92 = zext i16 %91 to i32
  %93 = icmp eq i32 %92, 24577
  br i1 %93, label %100, label %94

94:                                               ; preds = %88
  %95 = load ptr, ptr %3, align 8
  %96 = getelementptr inbounds nuw %struct.SDL_HIDAPI_Device, ptr %95, i32 0, i32 5
  %97 = load i16, ptr %96, align 2
  %98 = zext i16 %97 to i32
  %99 = icmp eq i32 %98, 24833
  br i1 %99, label %100, label %102

100:                                              ; preds = %94, %88
  %101 = load ptr, ptr %3, align 8
  call void @HIDAPI_SetDeviceName(ptr noundef %101, ptr noundef @.str.3)
  br label %117

102:                                              ; preds = %94
  %103 = load ptr, ptr %3, align 8
  %104 = getelementptr inbounds nuw %struct.SDL_HIDAPI_Device, ptr %103, i32 0, i32 5
  %105 = load i16, ptr %104, align 2
  %106 = zext i16 %105 to i32
  %107 = icmp eq i32 %106, 24579
  br i1 %107, label %114, label %108

108:                                              ; preds = %102
  %109 = load ptr, ptr %3, align 8
  %110 = getelementptr inbounds nuw %struct.SDL_HIDAPI_Device, ptr %109, i32 0, i32 5
  %111 = load i16, ptr %110, align 2
  %112 = zext i16 %111 to i32
  %113 = icmp eq i32 %112, 24582
  br i1 %113, label %114, label %116

114:                                              ; preds = %108, %102
  %115 = load ptr, ptr %3, align 8
  call void @HIDAPI_SetDeviceName(ptr noundef %115, ptr noundef @.str.4)
  br label %116

116:                                              ; preds = %114, %108
  br label %117

117:                                              ; preds = %116, %100
  br label %118

118:                                              ; preds = %117, %86
  %119 = load ptr, ptr %3, align 8
  %120 = call zeroext i1 @HIDAPI_JoystickConnected(ptr noundef %119, ptr noundef null)
  store i1 %120, ptr %2, align 1
  store i32 1, ptr %5, align 4
  br label %121

121:                                              ; preds = %118, %16
  call void @llvm.lifetime.end.p0(i64 8, ptr %4) #6
  %122 = load i1, ptr %2, align 1
  ret i1 %122
}