; Function Attrs: nounwind uwtable
define internal zeroext i1 @HIDAPI_Driver8BitDo_InitDevice(ptr noundef %0) #0 {
  %2 = alloca [64 x i8], align 16
  %3 = alloca [64 x i8], align 16
  %4 = tail call noalias dereferenceable_or_null(104) ptr @SDL_calloc_REAL(i64 noundef 1, i64 noundef 104) #10
  %.not = icmp eq ptr %4, null
  br i1 %.not, label %38, label %5

5:                                                ; preds = %1
  %6 = getelementptr inbounds nuw i8, ptr %0, i64 112
  store ptr %4, ptr %6, align 8
  %7 = getelementptr inbounds nuw i8, ptr %0, i64 34
  %8 = load i16, ptr %7, align 2
  %9 = icmp eq i16 %8, 24594
  br i1 %9, label %.preheader, label %23

.preheader:                                       ; preds = %5
  %10 = getelementptr inbounds nuw i8, ptr %0, i64 128
  br label %11

11:                                               ; preds = %.preheader, %21
  %.02933 = phi i32 [ 0, %.preheader ], [ %22, %21 ]
  call void @llvm.lifetime.start.p0(i64 64, ptr nonnull %2) #9
  %12 = load ptr, ptr %10, align 8
  %13 = call i32 @SDL_hid_read_timeout_REAL(ptr noundef %12, ptr noundef nonnull %2, i64 noundef 64, i32 noundef 80) #9
  %14 = icmp eq i32 %13, 0
  br i1 %14, label %21, label %15

15:                                               ; preds = %11
  %16 = icmp sgt i32 %13, 33
  br i1 %16, label %17, label %20

17:                                               ; preds = %15
  store i8 1, ptr %4, align 8
  %18 = getelementptr inbounds nuw i8, ptr %4, i64 4
  store i8 1, ptr %18, align 4
  %19 = getelementptr inbounds nuw i8, ptr %4, i64 8
  store i8 1, ptr %19, align 8
  br label %20

20:                                               ; preds = %15, %17
  call void @llvm.lifetime.end.p0(i64 64, ptr nonnull %2) #9
  br label %.loopexit

21:                                               ; preds = %11
  call void @llvm.lifetime.end.p0(i64 64, ptr nonnull %2) #9
  %22 = add nuw nsw i32 %.02933, 1
  %exitcond.not = icmp eq i32 %22, 3
  br i1 %exitcond.not, label %.loopexit, label %11, !llvm.loop !3

23:                                               ; preds = %5
  call void @llvm.lifetime.start.p0(i64 64, ptr nonnull %3) #9
  %24 = getelementptr inbounds nuw i8, ptr %0, i64 128
  %25 = load ptr, ptr %24, align 8
  %26 = getelementptr inbounds nuw i8, ptr %3, i64 1
  call void @llvm.memset.p0.i64(ptr noundef nonnull align 1 dereferenceable(63) %26, i8 0, i64 63, i1 false)
  store i8 6, ptr %3, align 16
  %27 = call i32 @SDL_hid_get_feature_report_REAL(ptr noundef %25, ptr noundef nonnull %3, i64 noundef 64) #9
  %28 = icmp sgt i32 %27, 0
  br i1 %28, label %29, label %32

29:                                               ; preds = %23
  store i8 1, ptr %4, align 8
  %30 = getelementptr inbounds nuw i8, ptr %4, i64 4
  store i8 1, ptr %30, align 4
  %31 = getelementptr inbounds nuw i8, ptr %4, i64 8
  store i8 1, ptr %31, align 8
  br label %32

32:                                               ; preds = %29, %23
  call void @llvm.lifetime.end.p0(i64 64, ptr nonnull %3) #9
  br label %.loopexit

.loopexit:                                        ; preds = %21, %20, %32
  %33 = load i16, ptr %7, align 2
  switch i16 %33, label %36 [
    i16 24576, label %.sink.split
    i16 24832, label %.sink.split
    i16 24577, label %34
    i16 24833, label %34
    i16 24579, label %35
    i16 24582, label %35
  ]

34:                                               ; preds = %.loopexit, %.loopexit
  br label %.sink.split

35:                                               ; preds = %.loopexit, %.loopexit
  br label %.sink.split

.sink.split:                                      ; preds = %.loopexit, %.loopexit, %35, %34
  %.str.3.sink = phi ptr [ @.str.3, %34 ], [ @.str.4, %35 ], [ @.str.2, %.loopexit ], [ @.str.2, %.loopexit ]
  call void @HIDAPI_SetDeviceName(ptr noundef nonnull %0, ptr noundef nonnull %.str.3.sink) #9
  br label %36

36:                                               ; preds = %.sink.split, %.loopexit
  %37 = call zeroext i1 @HIDAPI_JoystickConnected(ptr noundef nonnull %0, ptr noundef null) #9
  br label %38

38:                                               ; preds = %1, %36
  %.0 = phi i1 [ %37, %36 ], [ false, %1 ]
  ret i1 %.0
}